; Function Attrs: mustprogress uwtable
define void @_ZN6casadi8FunctionC2ERKNSt7__cxx1112basic_stringIcSt11char_traitsIcESaIcEEESt16initializer_listINS_2MXEERKSt6vectorISA_SaISA_EERKSC_IS6_SaIS6_EESK_RKSt3mapIS6_NS_11GenericTypeESt4lessIS6_ESaISt4pairIS7_SM_EEE(ptr noundef nonnull align 8 dereferenceable(8) initializes((0, 8)) %0, ptr noundef nonnull align 8 dereferenceable(32) %1, ptr %2, i64 %3, ptr noundef nonnull align 8 dereferenceable(24) %4, ptr noundef nonnull align 8 dereferenceable(24) %5, ptr noundef nonnull align 8 dereferenceable(24) %6, ptr noundef nonnull align 8 dereferenceable(48) %7) unnamed_addr #4 align 2 personality ptr @__gxx_personality_v0 {
  %9 = alloca %"class.std::vector.12", align 8
  store ptr null, ptr %0, align 8, !tbaa !22
  call void @llvm.lifetime.start.p0(i64 24, ptr nonnull %9) #30
  call void @llvm.memset.p0.i64(ptr noundef nonnull align 8 dereferenceable(24) %9, i8 0, i64 24, i1 false)
  %10 = getelementptr inbounds nuw %"class.casadi::MX", ptr %2, i64 %3
  invoke void @_ZNSt6vectorIN6casadi2MXESaIS1_EE19_M_range_initializeIPKS1_EEvT_S7_St20forward_iterator_tag(ptr noundef nonnull align 8 dereferenceable(24) %9, ptr noundef %2, ptr noundef %10)
          to label %_ZNSt6vectorIN6casadi2MXESaIS1_EEC2ESt16initializer_listIS1_ERKS2_.exit unwind label %11

11:                                               ; preds = %8
  %12 = landingpad { ptr, i32 }
          cleanup
  %13 = load ptr, ptr %9, align 8, !tbaa !95
  %.not.i.i.i = icmp eq ptr %13, null
  br i1 %.not.i.i.i, label %.body, label %14

14:                                               ; preds = %11
  %15 = getelementptr inbounds nuw i8, ptr %9, i64 16
  %16 = load ptr, ptr %15, align 8, !tbaa !98
  %17 = ptrtoint ptr %16 to i64
  %18 = ptrtoint ptr %13 to i64
  %19 = sub i64 %17, %18
  call void @_ZdlPvm(ptr noundef nonnull %13, i64 noundef %19) #31
  br label %.body

_ZNSt6vectorIN6casadi2MXESaIS1_EEC2ESt16initializer_listIS1_ERKS2_.exit: ; preds = %8
  invoke void @_ZN6casadi8Function9constructERKNSt7__cxx1112basic_stringIcSt11char_traitsIcESaIcEEERKSt6vectorINS_2MXESaISA_EESE_RKS9_IS6_SaIS6_EESI_RKSt3mapIS6_NS_11GenericTypeESt4lessIS6_ESaISt4pairIS7_SK_EEE(ptr noundef nonnull align 8 dereferenceable(8) %0, ptr noundef nonnull align 8 dereferenceable(32) %1, ptr noundef nonnull align 8 dereferenceable(24) %9, ptr noundef nonnull align 8 dereferenceable(24) %4, ptr noundef nonnull align 8 dereferenceable(24) %5, ptr noundef nonnull align 8 dereferenceable(24) %6, ptr noundef nonnull align 8 dereferenceable(48) %7)
          to label %20 unwind label %32

20:                                               ; preds = %_ZNSt6vectorIN6casadi2MXESaIS1_EEC2ESt16initializer_listIS1_ERKS2_.exit
  %21 = load ptr, ptr %9, align 8, !tbaa !95
  %22 = getelementptr inbounds nuw i8, ptr %9, i64 8
  %23 = load ptr, ptr %22, align 8, !tbaa !99
  %.not4.i.i.i.i = icmp eq ptr %21, %23
  br i1 %.not4.i.i.i.i, label %_ZSt8_DestroyIPN6casadi2MXES1_EvT_S3_RSaIT0_E.exit.i, label %.lr.ph.i.i.i.i

.lr.ph.i.i.i.i:                                   ; preds = %20, %.lr.ph.i.i.i.i
  %.05.i.i.i.i = phi ptr [ %24, %.lr.ph.i.i.i.i ], [ %21, %20 ]
  call void @_ZN6casadi2MXD1Ev(ptr noundef nonnull align 8 dereferenceable(8) %.05.i.i.i.i) #30
  %24 = getelementptr inbounds nuw i8, ptr %.05.i.i.i.i, i64 8
  %.not.i.i.i.i = icmp eq ptr %24, %23
  br i1 %.not.i.i.i.i, label %_ZSt8_DestroyIPN6casadi2MXES1_EvT_S3_RSaIT0_E.exitthread-pre-split.i, label %.lr.ph.i.i.i.i, !llvm.loop !100

_ZSt8_DestroyIPN6casadi2MXES1_EvT_S3_RSaIT0_E.exitthread-pre-split.i: ; preds = %.lr.ph.i.i.i.i
  %.pr.i = load ptr, ptr %9, align 8, !tbaa !95
  br label %_ZSt8_DestroyIPN6casadi2MXES1_EvT_S3_RSaIT0_E.exit.i

_ZSt8_DestroyIPN6casadi2MXES1_EvT_S3_RSaIT0_E.exit.i: ; preds = %_ZSt8_DestroyIPN6casadi2MXES1_EvT_S3_RSaIT0_E.exitthread-pre-split.i, %20
  %25 = phi ptr [ %.pr.i, %_ZSt8_DestroyIPN6casadi2MXES1_EvT_S3_RSaIT0_E.exitthread-pre-split.i ], [ %21, %20 ]
  %.not.i.i.i11 = icmp eq ptr %25, null
  br i1 %.not.i.i.i11, label %_ZNSt6vectorIN6casadi2MXESaIS1_EED2Ev.exit, label %26

26:                                               ; preds = %_ZSt8_DestroyIPN6casadi2MXES1_EvT_S3_RSaIT0_E.exit.i
  %27 = getelementptr inbounds nuw i8, ptr %9, i64 16
  %28 = load ptr, ptr %27, align 8, !tbaa !98
  %29 = ptrtoint ptr %28 to i64
  %30 = ptrtoint ptr %25 to i64
  %31 = sub i64 %29, %30
  call void @_ZdlPvm(ptr noundef nonnull %25, i64 noundef %31) #31
  br label %_ZNSt6vectorIN6casadi2MXESaIS1_EED2Ev.exit

_ZNSt6vectorIN6casadi2MXESaIS1_EED2Ev.exit:       ; preds = %_ZSt8_DestroyIPN6casadi2MXES1_EvT_S3_RSaIT0_E.exit.i, %26
  call void @llvm.lifetime.end.p0(i64 24, ptr nonnull %9) #30
  ret void

32:                                               ; preds = %_ZNSt6vectorIN6casadi2MXESaIS1_EEC2ESt16initializer_listIS1_ERKS2_.exit
  %33 = landingpad { ptr, i32 }
          cleanup
  call void @_ZNSt6vectorIN6casadi2MXESaIS1_EED2Ev(ptr noundef nonnull align 8 dereferenceable(24) %9) #30
  br label %.body

.body:                                            ; preds = %14, %11, %32
  %.pn = phi { ptr, i32 } [ %33, %32 ], [ %12, %14 ], [ %12, %11 ]
  call void @llvm.lifetime.end.p0(i64 24, ptr nonnull %9) #30
  invoke void @_ZN6casadi13GenericSharedINS_12SharedObjectENS_20SharedObjectInternalEE10count_downEv(ptr noundef nonnull align 8 dereferenceable(8) %0)
          to label %_ZN6casadi13GenericSharedINS_12SharedObjectENS_20SharedObjectInternalEED2Ev.exit unwind label %34

34:                                               ; preds = %.body
  %35 = landingpad { ptr, i32 }
          catch ptr null
  %36 = extractvalue { ptr, i32 } %35, 0
  call void @__clang_call_terminate(ptr %36) #32
  unreachable

_ZN6casadi13GenericSharedINS_12SharedObjectENS_20SharedObjectInternalEED2Ev.exit: ; preds = %.body
  resume { ptr, i32 } %.pn
}